target datalayout = "e-m:e-p270:32:32-p271:32:32-p272:64:64-i64:64-i128:128-f80:128-n8:16:32:64-S128"
target triple = "x86_64-unknown-linux-gnu"

%"class.sat::literal" = type { i32 }
%class.symbol = type { ptr }
%struct.pair_hash = type { %struct.unsigned_hash }
%struct.unsigned_hash = type { i8 }
%"class.bv::solver" = type { %"class.euf::th_euf_solver.base", %class.svector.3, i32, i32, %class.bv_util, %class.arith_util, %"struct.bv::solver::stats", %"class.bv::ackerman", %class.bit_blaster, %class.union_find, %class.vector.9, %class.svector.1, %class.vector.10, %class.ptr_vector.11, %class.map, %class.vector.15, %class.svector.3, %class.svector.16, %class.svector.1, i32, %"class.sat::literal", %class.ptr_vector, %class.obj_map, %class.obj_map.22, i8, [2 x %class.svector.27] }
%"class.euf::th_euf_solver.base" = type <{ %"class.euf::th_solver", ptr, %class.ptr_vector, %class.svector.1, i32 }>
%"class.euf::th_solver" = type { %"class.sat::extension", %"class.euf::th_model_builder", %"class.euf::th_decompile", %"class.euf::th_internalizer", ptr }
%"class.sat::extension" = type { ptr, i8, i32, %class.symbol, ptr }
%"class.euf::th_model_builder" = type { ptr }
%"class.euf::th_decompile" = type { ptr }
%"class.euf::th_internalizer" = type { ptr, %class.ptr_vector, %class.svector }
%class.svector = type { %class.vector.0 }
%class.vector.0 = type { ptr }
%class.bv_util = type { %class.bv_recognizers, ptr, ptr }
%class.bv_recognizers = type { i32 }
%class.arith_util = type { ptr, ptr }
%"struct.bv::solver::stats" = type { i32, i32, i32, i32, i32, i32, i32, i32 }
%"class.bv::ackerman" = type { ptr, %class.hashtable, ptr, ptr, i32, i32, i32, i32, %class.svector.5 }
%class.hashtable = type { %class.core_hashtable.base, [4 x i8] }
%class.core_hashtable.base = type <{ ptr, i32, i32, i32 }>
%class.svector.5 = type { %class.vector.6 }
%class.vector.6 = type { ptr }
%class.bit_blaster = type { %class.bit_blaster_tpl, %class.bv_util, %class.bool_rewriter }
%class.bit_blaster_tpl = type { %class.bit_blaster_cfg, i64 }
%class.bit_blaster_cfg = type { ptr, ptr, ptr }
%class.bool_rewriter = type { ptr, i8, i8, i8, i8, i8, i8, i32, i8, i32, i32, i8, %class.ptr_vector.7, %class.ptr_vector.7, %class.svector.1, %class.svector.1 }
%class.ptr_vector.7 = type { %class.vector.8 }
%class.vector.8 = type { ptr }
%class.union_find = type { ptr, ptr, %class.svector.1, %class.svector.1, %class.svector.1, %"class.union_find<bv::solver, euf::solver>::mk_var_trail" }
%"class.union_find<bv::solver, euf::solver>::mk_var_trail" = type { %class.trail, ptr }
%class.trail = type { ptr }
%class.vector.9 = type { ptr }
%class.vector.10 = type { ptr }
%class.ptr_vector.11 = type { %class.vector.12 }
%class.vector.12 = type { ptr }
%class.map = type { %class.table2map }
%class.table2map = type { %class.core_hashtable.13 }
%class.core_hashtable.13 = type <{ %"struct.table2map<default_map_entry<std::pair<rational, unsigned int>, int>, pair_hash<obj_hash<rational>, unsigned_hash>, default_eq<std::pair<rational, unsigned int>>>::entry_hash_proc", [7 x i8], ptr, i32, i32, i32, [4 x i8] }>
%"struct.table2map<default_map_entry<std::pair<rational, unsigned int>, int>, pair_hash<obj_hash<rational>, unsigned_hash>, default_eq<std::pair<rational, unsigned int>>>::entry_hash_proc" = type { %struct.pair_hash }
%class.vector.15 = type { ptr }
%class.svector.3 = type { %class.vector.4 }
%class.vector.4 = type { ptr }
%class.svector.16 = type { %class.vector.17 }
%class.vector.17 = type { ptr }
%class.svector.1 = type { %class.vector.2 }
%class.vector.2 = type { ptr }
%class.ptr_vector = type { %class.vector }
%class.vector = type { ptr }
%class.obj_map = type { %class.core_hashtable.18 }
%class.core_hashtable.18 = type <{ ptr, i32, i32, i32, [4 x i8] }>
%class.obj_map.22 = type { %class.core_hashtable.23 }
%class.core_hashtable.23 = type <{ ptr, i32, i32, i32, [4 x i8] }>
%class.svector.27 = type { %class.vector.28 }
%class.vector.28 = type { ptr }
%"class.euf::th_euf_solver" = type <{ %"class.euf::th_solver", ptr, %class.ptr_vector, %class.svector.1, i32, [4 x i8] }>
%"struct.std::pair.239" = type { i32, i32 }
%"struct.bv::solver::atom" = type { i32, ptr, ptr, %class.svector.237, %"class.sat::literal", %"class.sat::literal" }
%class.svector.237 = type { %class.vector.238 }
%class.vector.238 = type { ptr }
%"struct.bv::solver::propagation_item" = type { %"struct.std::pair.239", ptr }
%"struct.std::pair.242" = type { ptr, ptr }

; Function Attrs: mustprogress nounwind uwtable
define linkonce_odr hidden noundef i32 @_ZNK6vectorIPN2bv6solver4atomELb0EjE4sizeEv(ptr noundef nonnull align 8 dereferenceable(8) %this) #4 comdat align 2 {
entry:
  %retval = alloca i32, align 4
  %this.addr = alloca ptr, align 8
  store ptr %this, ptr %this.addr, align 8
  %this1 = load ptr, ptr %this.addr, align 8
  %m_data = getelementptr inbounds %class.vector.12, ptr %this1, i32 0, i32 0
  %0 = load ptr, ptr %m_data, align 8
  %cmp = icmp eq ptr %0, null
  br i1 %cmp, label %if.then, label %if.end

if.then:                                          ; preds = %entry
  store i32 0, ptr %retval, align 4
  br label %return

if.end:                                           ; preds = %entry
  %m_data2 = getelementptr inbounds %class.vector.12, ptr %this1, i32 0, i32 0
  %1 = load ptr, ptr %m_data2, align 8
  %arrayidx = getelementptr inbounds i32, ptr %1, i64 -1
  %2 = load i32, ptr %arrayidx, align 4
  store i32 %2, ptr %retval, align 4
  br label %return

return:                                           ; preds = %if.end, %if.then
  %3 = load i32, ptr %retval, align 4
  ret i32 %3
}

; Function Attrs: mustprogress nounwind uwtable
define linkonce_odr hidden noundef i32 @_ZNK6vectorISt4pairIPN2bv6solver4atomEPNS2_9eq_occursEELb0EjE4sizeEv(ptr noundef nonnull align 8 dereferenceable(8) %this) #4 comdat align 2 {
entry:
  %retval = alloca i32, align 4
  %this.addr = alloca ptr, align 8
  store ptr %this, ptr %this.addr, align 8
  %this1 = load ptr, ptr %this.addr, align 8
  %m_data = getelementptr inbounds %class.vector.238, ptr %this1, i32 0, i32 0
  %0 = load ptr, ptr %m_data, align 8
  %cmp = icmp eq ptr %0, null
  br i1 %cmp, label %if.then, label %if.end

if.then:                                          ; preds = %entry
  store i32 0, ptr %retval, align 4
  br label %return

if.end:                                           ; preds = %entry
  %m_data2 = getelementptr inbounds %class.vector.238, ptr %this1, i32 0, i32 0
  %1 = load ptr, ptr %m_data2, align 8
  %arrayidx = getelementptr inbounds i32, ptr %1, i64 -1
  %2 = load i32, ptr %arrayidx, align 4
  store i32 %2, ptr %retval, align 4
  br label %return

return:                                           ; preds = %if.end, %if.then
  %3 = load i32, ptr %retval, align 4
  ret i32 %3
}

; Function Attrs: mustprogress nounwind uwtable
define linkonce_odr hidden void @_ZNSt4pairIijEC2IiiTnNSt9enable_ifIXaaclsr5_PCCPE22_MoveConstructiblePairIT_T0_EEclsr5_PCCPE30_ImplicitlyMoveConvertiblePairIS3_S4_EEEbE4typeELb1EEEOS3_OS4_(ptr noundef nonnull align 4 dereferenceable(8) %this, ptr noundef nonnull align 4 dereferenceable(4) %__x, ptr noundef nonnull align 4 dereferenceable(4) %__y) unnamed_addr #4 comdat align 2 {
entry:
  %this.addr = alloca ptr, align 8
  %__x.addr = alloca ptr, align 8
  %__y.addr = alloca ptr, align 8
  store ptr %this, ptr %this.addr, align 8
  store ptr %__x, ptr %__x.addr, align 8
  store ptr %__y, ptr %__y.addr, align 8
  %this1 = load ptr, ptr %this.addr, align 8
  %first = getelementptr inbounds %"struct.std::pair.239", ptr %this1, i32 0, i32 0
  %0 = load ptr, ptr %__x.addr, align 8
  %1 = load i32, ptr %0, align 4
  store i32 %1, ptr %first, align 4
  %second = getelementptr inbounds %"struct.std::pair.239", ptr %this1, i32 0, i32 1
  %2 = load ptr, ptr %__y.addr, align 8
  %3 = load i32, ptr %2, align 4
  store i32 %3, ptr %second, align 4
  ret void
}

; Function Attrs: mustprogress nounwind uwtable
define linkonce_odr hidden noundef nonnull align 8 dereferenceable(8) ptr @_ZNK6vectorIPN2bv6solver4atomELb0EjE3getEjRKS3_(ptr noundef nonnull align 8 dereferenceable(8) %this, i32 noundef %idx, ptr noundef nonnull align 8 dereferenceable(8) %d) #4 comdat align 2 {
entry:
  %retval = alloca ptr, align 8
  %this.addr = alloca ptr, align 8
  %idx.addr = alloca i32, align 4
  %d.addr = alloca ptr, align 8
  store ptr %this, ptr %this.addr, align 8
  store i32 %idx, ptr %idx.addr, align 4
  store ptr %d, ptr %d.addr, align 8
  %this1 = load ptr, ptr %this.addr, align 8
  %0 = load i32, ptr %idx.addr, align 4
  %call = call noundef i32 @_ZNK6vectorIPN2bv6solver4atomELb0EjE4sizeEv(ptr noundef nonnull align 8 dereferenceable(8) %this1)
  %cmp = icmp uge i32 %0, %call
  br i1 %cmp, label %if.then, label %if.end

if.then:                                          ; preds = %entry
  %1 = load ptr, ptr %d.addr, align 8
  store ptr %1, ptr %retval, align 8
  br label %return

if.end:                                           ; preds = %entry
  %m_data = getelementptr inbounds %class.vector.12, ptr %this1, i32 0, i32 0
  %2 = load ptr, ptr %m_data, align 8
  %3 = load i32, ptr %idx.addr, align 4
  %idxprom = zext i32 %3 to i64
  %arrayidx = getelementptr inbounds ptr, ptr %2, i64 %idxprom
  store ptr %arrayidx, ptr %retval, align 8
  br label %return

return:                                           ; preds = %if.end, %if.then
  %4 = load ptr, ptr %retval, align 8
  ret ptr %4
}

; Function Attrs: mustprogress uwtable
define linkonce_odr hidden noundef ptr @_ZN6vectorISt4pairIPN2bv6solver4atomEPNS2_9eq_occursEELb0EjE3endEv(ptr noundef nonnull align 8 dereferenceable(8) %this) #5 comdat align 2 {
entry:
  %this.addr = alloca ptr, align 8
  store ptr %this, ptr %this.addr, align 8
  %this1 = load ptr, ptr %this.addr, align 8
  %m_data = getelementptr inbounds %class.vector.238, ptr %this1, i32 0, i32 0
  %0 = load ptr, ptr %m_data, align 8
  %call = call noundef i32 @_ZNK6vectorISt4pairIPN2bv6solver4atomEPNS2_9eq_occursEELb0EjE4sizeEv(ptr noundef nonnull align 8 dereferenceable(8) %this1)
  %idx.ext = zext i32 %call to i64
  %add.ptr = getelementptr inbounds %"struct.std::pair.242", ptr %0, i64 %idx.ext
  ret ptr %add.ptr
}

; Function Attrs: mustprogress nounwind uwtable
define linkonce_odr hidden noundef ptr @_ZN6vectorISt4pairIPN2bv6solver4atomEPNS2_9eq_occursEELb0EjE5beginEv(ptr noundef nonnull align 8 dereferenceable(8) %this) #4 comdat align 2 {
entry:
  %this.addr = alloca ptr, align 8
  store ptr %this, ptr %this.addr, align 8
  %this1 = load ptr, ptr %this.addr, align 8
  %m_data = getelementptr inbounds %class.vector.238, ptr %this1, i32 0, i32 0
  %0 = load ptr, ptr %m_data, align 8
  ret ptr %0
}

; Function Attrs: mustprogress uwtable
define linkonce_odr hidden noundef nonnull align 8 dereferenceable(8) ptr @_ZN6vectorIN2bv6solver16propagation_itemELb0EjE9push_backEOS2_(ptr noundef nonnull align 8 dereferenceable(8) %this, ptr noundef nonnull align 8 dereferenceable(16) %elem) #5 comdat align 2 {
entry:
  %this.addr = alloca ptr, align 8
  %elem.addr = alloca ptr, align 8
  store ptr %this, ptr %this.addr, align 8
  store ptr %elem, ptr %elem.addr, align 8
  %this1 = load ptr, ptr %this.addr, align 8
  %m_data = getelementptr inbounds %class.vector.17, ptr %this1, i32 0, i32 0
  %0 = load ptr, ptr %m_data, align 8
  %cmp = icmp eq ptr %0, null
  br i1 %cmp, label %if.then, label %lor.lhs.false

lor.lhs.false:                                    ; preds = %entry
  %m_data2 = getelementptr inbounds %class.vector.17, ptr %this1, i32 0, i32 0
  %1 = load ptr, ptr %m_data2, align 8
  %arrayidx = getelementptr inbounds i32, ptr %1, i64 -1
  %2 = load i32, ptr %arrayidx, align 4
  %m_data3 = getelementptr inbounds %class.vector.17, ptr %this1, i32 0, i32 0
  %3 = load ptr, ptr %m_data3, align 8
  %arrayidx4 = getelementptr inbounds i32, ptr %3, i64 -2
  %4 = load i32, ptr %arrayidx4, align 4
  %cmp5 = icmp eq i32 %2, %4
  br i1 %cmp5, label %if.then, label %if.end

if.then:                                          ; preds = %lor.lhs.false, %entry
  call void @_ZN6vectorIN2bv6solver16propagation_itemELb0EjE13expand_vectorEv(ptr noundef nonnull align 8 dereferenceable(8) %this1)
  br label %if.end

if.end:                                           ; preds = %if.then, %lor.lhs.false
  %m_data6 = getelementptr inbounds %class.vector.17, ptr %this1, i32 0, i32 0
  %5 = load ptr, ptr %m_data6, align 8
  %m_data7 = getelementptr inbounds %class.vector.17, ptr %this1, i32 0, i32 0
  %6 = load ptr, ptr %m_data7, align 8
  %arrayidx8 = getelementptr inbounds i32, ptr %6, i64 -1
  %7 = load i32, ptr %arrayidx8, align 4
  %idx.ext = zext i32 %7 to i64
  %add.ptr = getelementptr inbounds %"struct.bv::solver::propagation_item", ptr %5, i64 %idx.ext
  %8 = load ptr, ptr %elem.addr, align 8
  call void @llvm.memcpy.p0.p0.i64(ptr align 8 %add.ptr, ptr align 8 %8, i64 16, i1 false)
  %m_data9 = getelementptr inbounds %class.vector.17, ptr %this1, i32 0, i32 0
  %9 = load ptr, ptr %m_data9, align 8
  %arrayidx10 = getelementptr inbounds i32, ptr %9, i64 -1
  %10 = load i32, ptr %arrayidx10, align 4
  %inc = add i32 %10, 1
  store i32 %inc, ptr %arrayidx10, align 4
  ret ptr %this1
}

; Function Attrs: mustprogress uwtable
define linkonce_odr hidden void @_ZN2bv6solver16propagation_itemC2EPNS0_4atomE(ptr noundef nonnull align 8 dereferenceable(16) %this, ptr noundef %a) unnamed_addr #5 comdat align 2 {
entry:
  %this.addr = alloca ptr, align 8
  %a.addr = alloca ptr, align 8
  %ref.tmp = alloca i32, align 4
  %ref.tmp2 = alloca i32, align 4
  store ptr %this, ptr %this.addr, align 8
  store ptr %a, ptr %a.addr, align 8
  %this1 = load ptr, ptr %this.addr, align 8
  %m_vp = getelementptr inbounds %"struct.bv::solver::propagation_item", ptr %this1, i32 0, i32 0
  store i32 0, ptr %ref.tmp, align 4
  store i32 0, ptr %ref.tmp2, align 4
  call void @_ZNSt4pairIijEC2IiiTnNSt9enable_ifIXaaclsr5_PCCPE22_MoveConstructiblePairIT_T0_EEclsr5_PCCPE30_ImplicitlyMoveConvertiblePairIS3_S4_EEEbE4typeELb1EEEOS3_OS4_(ptr noundef nonnull align 4 dereferenceable(8) %m_vp, ptr noundef nonnull align 4 dereferenceable(4) %ref.tmp, ptr noundef nonnull align 4 dereferenceable(4) %ref.tmp2)
  %m_atom = getelementptr inbounds %"struct.bv::solver::propagation_item", ptr %this1, i32 0, i32 1
  %0 = load ptr, ptr %a.addr, align 8
  store ptr %0, ptr %m_atom, align 8
  ret void
}

; Function Attrs: mustprogress uwtable
define linkonce_odr hidden void @_ZN3euf13th_euf_solver10force_pushEv(ptr noundef nonnull align 8 dereferenceable(108) %this) #5 comdat align 2 {
entry:
  %this.addr = alloca ptr, align 8
  store ptr %this, ptr %this.addr, align 8
  %this1 = load ptr, ptr %this.addr, align 8
  br label %for.cond

for.cond:                                         ; preds = %for.inc, %entry
  %m_num_scopes = getelementptr inbounds %"class.euf::th_euf_solver", ptr %this1, i32 0, i32 4
  %0 = load i32, ptr %m_num_scopes, align 8
  %cmp = icmp ugt i32 %0, 0
  br i1 %cmp, label %for.body, label %for.end

for.body:                                         ; preds = %for.cond
  %vtable = load ptr, ptr %this1, align 8
  %vfn = getelementptr inbounds ptr, ptr %vtable, i64 62
  %1 = load ptr, ptr %vfn, align 8
  call void %1(ptr noundef nonnull align 8 dereferenceable(108) %this1)
  br label %for.inc

for.inc:                                          ; preds = %for.body
  %m_num_scopes2 = getelementptr inbounds %"class.euf::th_euf_solver", ptr %this1, i32 0, i32 4
  %2 = load i32, ptr %m_num_scopes2, align 8
  %dec = add i32 %2, -1
  store i32 %dec, ptr %m_num_scopes2, align 8
  br label %for.cond, !llvm.loop !8

for.end:                                          ; preds = %for.cond
  ret void
}

; Function Attrs: mustprogress uwtable
define linkonce_odr hidden noundef ptr @_ZNK2bv6solver8get_bv2aEj(ptr noundef nonnull align 8 dereferenceable(640) %this, i32 noundef %bv) #5 comdat align 2 {
entry:
  %this.addr = alloca ptr, align 8
  %bv.addr = alloca i32, align 4
  %ref.tmp = alloca ptr, align 8
  store ptr %this, ptr %this.addr, align 8
  store i32 %bv, ptr %bv.addr, align 4
  %this1 = load ptr, ptr %this.addr, align 8
  %m_bool_var2atom = getelementptr inbounds %"class.bv::solver", ptr %this1, i32 0, i32 13
  %0 = load i32, ptr %bv.addr, align 4
  store ptr null, ptr %ref.tmp, align 8
  %call = call noundef nonnull align 8 dereferenceable(8) ptr @_ZNK6vectorIPN2bv6solver4atomELb0EjE3getEjRKS3_(ptr noundef nonnull align 8 dereferenceable(8) %m_bool_var2atom, i32 noundef %0, ptr noundef nonnull align 8 dereferenceable(8) %ref.tmp)
  %1 = load ptr, ptr %call, align 8
  ret ptr %1
}

; Function Attrs: mustprogress nounwind uwtable
define linkonce_odr hidden noundef i32 @_ZNK3sat7literal3varEv(ptr noundef nonnull align 4 dereferenceable(4) %this) #4 comdat align 2 {
entry:
  %this.addr = alloca ptr, align 8
  store ptr %this, ptr %this.addr, align 8
  %this1 = load ptr, ptr %this.addr, align 8
  %m_val = getelementptr inbounds %"class.sat::literal", ptr %this1, i32 0, i32 0
  %0 = load i32, ptr %m_val, align 4
  %shr = lshr i32 %0, 1
  ret i32 %shr
}

; Function Attrs: mustprogress uwtable
define hidden void @_ZN2bv6solver8assertedEN3sat7literalE(ptr noundef nonnull align 8 dereferenceable(640) %this, i32 %l.coerce) unnamed_addr #5 align 2 {
entry:
  %l = alloca %"class.sat::literal", align 4
  %this.addr = alloca ptr, align 8
  %a = alloca ptr, align 8
  %ref.tmp = alloca %"struct.bv::solver::propagation_item", align 8
  %__range2 = alloca ptr, align 8
  %__begin2 = alloca ptr, align 8
  %__end2 = alloca ptr, align 8
  %p = alloca %"struct.std::pair.242", align 8
  %coerce.dive = getelementptr inbounds %"class.sat::literal", ptr %l, i32 0, i32 0
  store i32 %l.coerce, ptr %coerce.dive, align 4
  store ptr %this, ptr %this.addr, align 8
  %this1 = load ptr, ptr %this.addr, align 8
  %call = call noundef i32 @_ZNK3sat7literal3varEv(ptr noundef nonnull align 4 dereferenceable(4) %l)
  %call2 = call noundef ptr @_ZNK2bv6solver8get_bv2aEj(ptr noundef nonnull align 8 dereferenceable(640) %this1, i32 noundef %call)
  store ptr %call2, ptr %a, align 8
  %0 = load ptr, ptr %a, align 8
  %tobool = icmp ne ptr %0, null
  br i1 %tobool, label %if.then, label %if.end

if.then:                                          ; preds = %entry
  call void @_ZN3euf13th_euf_solver10force_pushEv(ptr noundef nonnull align 8 dereferenceable(108) %this1)
  %m_prop_queue = getelementptr inbounds %"class.bv::solver", ptr %this1, i32 0, i32 17
  %1 = load ptr, ptr %a, align 8
  call void @_ZN2bv6solver16propagation_itemC2EPNS0_4atomE(ptr noundef nonnull align 8 dereferenceable(16) %ref.tmp, ptr noundef %1)
  %call3 = call noundef nonnull align 8 dereferenceable(8) ptr @_ZN6vectorIN2bv6solver16propagation_itemELb0EjE9push_backEOS2_(ptr noundef nonnull align 8 dereferenceable(8) %m_prop_queue, ptr noundef nonnull align 8 dereferenceable(16) %ref.tmp)
  %2 = load ptr, ptr %a, align 8
  %m_bit2occ = getelementptr inbounds %"struct.bv::solver::atom", ptr %2, i32 0, i32 3
  store ptr %m_bit2occ, ptr %__range2, align 8
  %3 = load ptr, ptr %__range2, align 8
  %call4 = call noundef ptr @_ZN6vectorISt4pairIPN2bv6solver4atomEPNS2_9eq_occursEELb0EjE5beginEv(ptr noundef nonnull align 8 dereferenceable(8) %3)
  store ptr %call4, ptr %__begin2, align 8
  %4 = load ptr, ptr %__range2, align 8
  %call5 = call noundef ptr @_ZN6vectorISt4pairIPN2bv6solver4atomEPNS2_9eq_occursEELb0EjE3endEv(ptr noundef nonnull align 8 dereferenceable(8) %4)
  store ptr %call5, ptr %__end2, align 8
  br label %for.cond

for.cond:                                         ; preds = %for.inc, %if.then
  %5 = load ptr, ptr %__begin2, align 8
  %6 = load ptr, ptr %__end2, align 8
  %cmp = icmp ne ptr %5, %6
  br i1 %cmp, label %for.body, label %for.end

for.body:                                         ; preds = %for.cond
  %7 = load ptr, ptr %__begin2, align 8
  call void @llvm.memcpy.p0.p0.i64(ptr align 8 %p, ptr align 8 %7, i64 16, i1 false)
  %first = getelementptr inbounds %"struct.std::pair.242", ptr %p, i32 0, i32 0
  %8 = load ptr, ptr %first, align 8
  %second = getelementptr inbounds %"struct.std::pair.242", ptr %p, i32 0, i32 1
  %9 = load ptr, ptr %second, align 8
  call void @_ZN2bv6solver13del_eq_occursEPNS0_4atomEPNS0_9eq_occursE(ptr noundef nonnull align 8 dereferenceable(640) %this1, ptr noundef %8, ptr noundef %9)
  br label %for.inc

for.inc:                                          ; preds = %for.body
  %10 = load ptr, ptr %__begin2, align 8
  %incdec.ptr = getelementptr inbounds %"struct.std::pair.242", ptr %10, i32 1
  store ptr %incdec.ptr, ptr %__begin2, align 8
  br label %for.cond

for.end:                                          ; preds = %for.cond
  br label %if.end

if.end:                                           ; preds = %for.end, %entry
  ret void
}