; Function Attrs: mustprogress uwtable
define hidden void @_ZN2bv6solver8assertedEN3sat7literalE(ptr noundef nonnull align 8 dereferenceable(640) %this, i32 %l.coerce) unnamed_addr #3 align 2 {
entry:
  %shr.i = lshr i32 %l.coerce, 1
  %m_bool_var2atom.i = getelementptr inbounds i8, ptr %this, i64 480
  %0 = load ptr, ptr %m_bool_var2atom.i, align 8
  %cmp.i.i.i = icmp eq ptr %0, null
  br i1 %cmp.i.i.i, label %if.end, label %_ZNK6vectorIPN2bv6solver4atomELb0EjE3getEjRKS3_.exit.i

_ZNK6vectorIPN2bv6solver4atomELb0EjE3getEjRKS3_.exit.i: ; preds = %entry
  %arrayidx.i.i.i = getelementptr inbounds i8, ptr %0, i64 -4
  %1 = load i32, ptr %arrayidx.i.i.i, align 4
  %cmp.not.i.i = icmp ugt i32 %1, %shr.i
  br i1 %cmp.not.i.i, label %_ZNK2bv6solver8get_bv2aEj.exit, label %if.end

_ZNK2bv6solver8get_bv2aEj.exit:                   ; preds = %_ZNK6vectorIPN2bv6solver4atomELb0EjE3getEjRKS3_.exit.i
  %idxprom.i.i = zext nneg i32 %shr.i to i64
  %arrayidx.i.i = getelementptr inbounds ptr, ptr %0, i64 %idxprom.i.i
  %.then.val.i = load ptr, ptr %arrayidx.i.i, align 8
  %tobool.not = icmp eq ptr %.then.val.i, null
  br i1 %tobool.not, label %if.end, label %if.then

if.then:                                          ; preds = %_ZNK2bv6solver8get_bv2aEj.exit
  %m_num_scopes.i = getelementptr inbounds i8, ptr %this, i64 104
  %2 = load i32, ptr %m_num_scopes.i, align 8
  %cmp.not1.i = icmp eq i32 %2, 0
  br i1 %cmp.not1.i, label %_ZN3euf13th_euf_solver10force_pushEv.exit, label %for.body.i

for.body.i:                                       ; preds = %if.then, %for.body.i
  %vtable.i = load ptr, ptr %this, align 8
  %vfn.i = getelementptr inbounds i8, ptr %vtable.i, i64 496
  %3 = load ptr, ptr %vfn.i, align 8
  tail call void %3(ptr noundef nonnull align 8 dereferenceable(108) %this)
  %4 = load i32, ptr %m_num_scopes.i, align 8
  %dec.i = add i32 %4, -1
  store i32 %dec.i, ptr %m_num_scopes.i, align 8
  %cmp.not.i = icmp eq i32 %dec.i, 0
  br i1 %cmp.not.i, label %_ZN3euf13th_euf_solver10force_pushEv.exit, label %for.body.i, !llvm.loop !14

_ZN3euf13th_euf_solver10force_pushEv.exit:        ; preds = %for.body.i, %if.then
  %m_prop_queue = getelementptr inbounds i8, ptr %this, i64 536
  %5 = load ptr, ptr %m_prop_queue, align 8
  %cmp.i = icmp eq ptr %5, null
  br i1 %cmp.i, label %if.then.i, label %lor.lhs.false.i

lor.lhs.false.i:                                  ; preds = %_ZN3euf13th_euf_solver10force_pushEv.exit
  %arrayidx.i = getelementptr inbounds i8, ptr %5, i64 -4
  %6 = load i32, ptr %arrayidx.i, align 4
  %arrayidx4.i = getelementptr inbounds i8, ptr %5, i64 -8
  %7 = load i32, ptr %arrayidx4.i, align 4
  %cmp5.i = icmp eq i32 %6, %7
  br i1 %cmp5.i, label %if.then.i, label %_ZN6vectorIN2bv6solver16propagation_itemELb0EjE9push_backEOS2_.exit

if.then.i:                                        ; preds = %lor.lhs.false.i, %_ZN3euf13th_euf_solver10force_pushEv.exit
  tail call void @_ZN6vectorIN2bv6solver16propagation_itemELb0EjE13expand_vectorEv(ptr noundef nonnull align 8 dereferenceable(8) %m_prop_queue)
  %.pre.i = load ptr, ptr %m_prop_queue, align 8
  %arrayidx8.phi.trans.insert.i = getelementptr inbounds i8, ptr %.pre.i, i64 -4
  %.pre1.i = load i32, ptr %arrayidx8.phi.trans.insert.i, align 4
  br label %_ZN6vectorIN2bv6solver16propagation_itemELb0EjE9push_backEOS2_.exit

_ZN6vectorIN2bv6solver16propagation_itemELb0EjE9push_backEOS2_.exit: ; preds = %lor.lhs.false.i, %if.then.i
  %8 = phi i32 [ %.pre1.i, %if.then.i ], [ %6, %lor.lhs.false.i ]
  %9 = phi ptr [ %.pre.i, %if.then.i ], [ %5, %lor.lhs.false.i ]
  %idx.ext.i = zext i32 %8 to i64
  %add.ptr.i = getelementptr inbounds %"struct.bv::solver::propagation_item", ptr %9, i64 %idx.ext.i
  store i32 0, ptr %add.ptr.i, align 8
  %ref.tmp.sroa.2.0.add.ptr.i.sroa_idx = getelementptr inbounds i8, ptr %add.ptr.i, i64 4
  store i32 0, ptr %ref.tmp.sroa.2.0.add.ptr.i.sroa_idx, align 4
  %ref.tmp.sroa.3.0.add.ptr.i.sroa_idx = getelementptr inbounds i8, ptr %add.ptr.i, i64 8
  store ptr %.then.val.i, ptr %ref.tmp.sroa.3.0.add.ptr.i.sroa_idx, align 8
  %10 = load ptr, ptr %m_prop_queue, align 8
  %arrayidx10.i = getelementptr inbounds i8, ptr %10, i64 -4
  %11 = load i32, ptr %arrayidx10.i, align 4
  %inc.i = add i32 %11, 1
  store i32 %inc.i, ptr %arrayidx10.i, align 4
  %m_bit2occ = getelementptr inbounds i8, ptr %.then.val.i, i64 24
  %12 = load ptr, ptr %m_bit2occ, align 8
  %cmp.i.i = icmp eq ptr %12, null
  br i1 %cmp.i.i, label %if.end, label %_ZN6vectorISt4pairIPN2bv6solver4atomEPNS2_9eq_occursEELb0EjE3endEv.exit

_ZN6vectorISt4pairIPN2bv6solver4atomEPNS2_9eq_occursEELb0EjE3endEv.exit: ; preds = %_ZN6vectorIN2bv6solver16propagation_itemELb0EjE9push_backEOS2_.exit
  %arrayidx.i.i6 = getelementptr inbounds i8, ptr %12, i64 -4
  %13 = load i32, ptr %arrayidx.i.i6, align 4
  %14 = zext i32 %13 to i64
  %add.ptr.i7 = getelementptr inbounds %"struct.std::pair.242", ptr %12, i64 %14
  %cmp.not9 = icmp eq i32 %13, 0
  br i1 %cmp.not9, label %if.end, label %for.body

for.body:                                         ; preds = %_ZN6vectorISt4pairIPN2bv6solver4atomEPNS2_9eq_occursEELb0EjE3endEv.exit, %for.body
  %__begin2.010 = phi ptr [ %incdec.ptr, %for.body ], [ %12, %_ZN6vectorISt4pairIPN2bv6solver4atomEPNS2_9eq_occursEELb0EjE3endEv.exit ]
  %p.sroa.0.0.copyload = load ptr, ptr %__begin2.010, align 8
  %p.sroa.2.0..sroa_idx = getelementptr inbounds i8, ptr %__begin2.010, i64 8
  %p.sroa.2.0.copyload = load ptr, ptr %p.sroa.2.0..sroa_idx, align 8
  tail call void @_ZN2bv6solver13del_eq_occursEPNS0_4atomEPNS0_9eq_occursE(ptr noundef nonnull align 8 dereferenceable(640) %this, ptr noundef %p.sroa.0.0.copyload, ptr noundef %p.sroa.2.0.copyload)
  %incdec.ptr = getelementptr inbounds i8, ptr %__begin2.010, i64 16
  %cmp.not = icmp eq ptr %incdec.ptr, %add.ptr.i7
  br i1 %cmp.not, label %if.end, label %for.body

if.end:                                           ; preds = %for.body, %_ZN6vectorIN2bv6solver16propagation_itemELb0EjE9push_backEOS2_.exit, %_ZN6vectorISt4pairIPN2bv6solver4atomEPNS2_9eq_occursEELb0EjE3endEv.exit, %entry, %_ZNK6vectorIPN2bv6solver4atomELb0EjE3getEjRKS3_.exit.i, %_ZNK2bv6solver8get_bv2aEj.exit
  ret void
}